; ModuleID = '38/1229.c'
source_filename = "38/1229.c"
target datalayout = "e-m:e-p270:32:32-p271:32:32-p272:64:64-i64:64-f80:128-n8:16:32:64-S128"
target triple = "x86_64-pc-linux-gnu"

@.str = private unnamed_addr constant [3 x i8] c"%d\00", align 1
@.str.1 = private unnamed_addr constant [4 x i8] c"%lf\00", align 1
@.str.2 = private unnamed_addr constant [7 x i8] c"%.5lf\0A\00", align 1

; Function Attrs: noinline nounwind uwtable
define dso_local i32 @main() #0 {
  %1 = alloca i32, align 4
  %2 = alloca i32, align 4
  %3 = alloca i32, align 4
  %4 = alloca i32, align 4
  %5 = alloca [100 x i32], align 16
  %6 = alloca [100 x [1000 x double]], align 16
  %7 = alloca [100 x double], align 16
  %8 = alloca [100 x double], align 16
  %9 = alloca [100 x double], align 16
  %10 = alloca [100 x double], align 16
  store i32 0, i32* %1, align 4
  %11 = bitcast [100 x double]* %7 to i8*
  call void @llvm.memset.p0i8.i64(i8* align 16 %11, i8 0, i64 800, i1 false)
  %12 = bitcast [100 x double]* %9 to i8*
  call void @llvm.memset.p0i8.i64(i8* align 16 %12, i8 0, i64 800, i1 false)
  %13 = call i32 (i8*, ...) @__isoc99_scanf(i8* getelementptr inbounds ([3 x i8], [3 x i8]* @.str, i64 0, i64 0), i32* %2)
  store i32 0, i32* %3, align 4
  br label %14

14:                                               ; preds = %42, %0
  %15 = load i32, i32* %3, align 4
  %16 = load i32, i32* %2, align 4
  %17 = icmp slt i32 %15, %16
  br i1 %17, label %18, label %45

18:                                               ; preds = %14
  %19 = load i32, i32* %3, align 4
  %20 = sext i32 %19 to i64
  %21 = getelementptr inbounds [100 x i32], [100 x i32]* %5, i64 0, i64 %20
  %22 = call i32 (i8*, ...) @__isoc99_scanf(i8* getelementptr inbounds ([3 x i8], [3 x i8]* @.str, i64 0, i64 0), i32* %21)
  store i32 0, i32* %4, align 4
  br label %23

23:                                               ; preds = %38, %18
  %24 = load i32, i32* %4, align 4
  %25 = load i32, i32* %3, align 4
  %26 = sext i32 %25 to i64
  %27 = getelementptr inbounds [100 x i32], [100 x i32]* %5, i64 0, i64 %26
  %28 = load i32, i32* %27, align 4
  %29 = icmp slt i32 %24, %28
  br i1 %29, label %30, label %41

30:                                               ; preds = %23
  %31 = load i32, i32* %3, align 4
  %32 = sext i32 %31 to i64
  %33 = getelementptr inbounds [100 x [1000 x double]], [100 x [1000 x double]]* %6, i64 0, i64 %32
  %34 = load i32, i32* %4, align 4
  %35 = sext i32 %34 to i64
  %36 = getelementptr inbounds [1000 x double], [1000 x double]* %33, i64 0, i64 %35
  %37 = call i32 (i8*, ...) @__isoc99_scanf(i8* getelementptr inbounds ([4 x i8], [4 x i8]* @.str.1, i64 0, i64 0), double* %36)
  br label %38

38:                                               ; preds = %30
  %39 = load i32, i32* %4, align 4
  %40 = add nsw i32 %39, 1
  store i32 %40, i32* %4, align 4
  br label %23

41:                                               ; preds = %23
  br label %42

42:                                               ; preds = %41
  %43 = load i32, i32* %3, align 4
  %44 = add nsw i32 %43, 1
  store i32 %44, i32* %3, align 4
  br label %14

45:                                               ; preds = %14
  store i32 0, i32* %3, align 4
  br label %46

46:                                               ; preds = %88, %45
  %47 = load i32, i32* %3, align 4
  %48 = load i32, i32* %2, align 4
  %49 = icmp slt i32 %47, %48
  br i1 %49, label %50, label %91

50:                                               ; preds = %46
  store i32 0, i32* %4, align 4
  br label %51

51:                                               ; preds = %71, %50
  %52 = load i32, i32* %4, align 4
  %53 = load i32, i32* %3, align 4
  %54 = sext i32 %53 to i64
  %55 = getelementptr inbounds [100 x i32], [100 x i32]* %5, i64 0, i64 %54
  %56 = load i32, i32* %55, align 4
  %57 = icmp slt i32 %52, %56
  br i1 %57, label %58, label %74

58:                                               ; preds = %51
  %59 = load i32, i32* %3, align 4
  %60 = sext i32 %59 to i64
  %61 = getelementptr inbounds [100 x [1000 x double]], [100 x [1000 x double]]* %6, i64 0, i64 %60
  %62 = load i32, i32* %4, align 4
  %63 = sext i32 %62 to i64
  %64 = getelementptr inbounds [1000 x double], [1000 x double]* %61, i64 0, i64 %63
  %65 = load double, double* %64, align 8
  %66 = load i32, i32* %3, align 4
  %67 = sext i32 %66 to i64
  %68 = getelementptr inbounds [100 x double], [100 x double]* %9, i64 0, i64 %67
  %69 = load double, double* %68, align 8
  %70 = fadd double %69, %65
  store double %70, double* %68, align 8
  br label %71

71:                                               ; preds = %58
  %72 = load i32, i32* %4, align 4
  %73 = add nsw i32 %72, 1
  store i32 %73, i32* %4, align 4
  br label %51

74:                                               ; preds = %51
  %75 = load i32, i32* %3, align 4
  %76 = sext i32 %75 to i64
  %77 = getelementptr inbounds [100 x double], [100 x double]* %9, i64 0, i64 %76
  %78 = load double, double* %77, align 8
  %79 = load i32, i32* %3, align 4
  %80 = sext i32 %79 to i64
  %81 = getelementptr inbounds [100 x i32], [100 x i32]* %5, i64 0, i64 %80
  %82 = load i32, i32* %81, align 4
  %83 = sitofp i32 %82 to double
  %84 = fdiv double %78, %83
  %85 = load i32, i32* %3, align 4
  %86 = sext i32 %85 to i64
  %87 = getelementptr inbounds [100 x double], [100 x double]* %10, i64 0, i64 %86
  store double %84, double* %87, align 8
  br label %88

88:                                               ; preds = %74
  %89 = load i32, i32* %3, align 4
  %90 = add nsw i32 %89, 1
  store i32 %90, i32* %3, align 4
  br label %46

91:                                               ; preds = %46
  store i32 0, i32* %3, align 4
  br label %92

92:                                               ; preds = %153, %91
  %93 = load i32, i32* %3, align 4
  %94 = load i32, i32* %2, align 4
  %95 = icmp slt i32 %93, %94
  br i1 %95, label %96, label %156

96:                                               ; preds = %92
  store i32 0, i32* %4, align 4
  br label %97

97:                                               ; preds = %135, %96
  %98 = load i32, i32* %4, align 4
  %99 = load i32, i32* %3, align 4
  %100 = sext i32 %99 to i64
  %101 = getelementptr inbounds [100 x i32], [100 x i32]* %5, i64 0, i64 %100
  %102 = load i32, i32* %101, align 4
  %103 = icmp slt i32 %98, %102
  br i1 %103, label %104, label %138

104:                                              ; preds = %97
  %105 = load i32, i32* %3, align 4
  %106 = sext i32 %105 to i64
  %107 = getelementptr inbounds [100 x [1000 x double]], [100 x [1000 x double]]* %6, i64 0, i64 %106
  %108 = load i32, i32* %4, align 4
  %109 = sext i32 %108 to i64
  %110 = getelementptr inbounds [1000 x double], [1000 x double]* %107, i64 0, i64 %109
  %111 = load double, double* %110, align 8
  %112 = load i32, i32* %3, align 4
  %113 = sext i32 %112 to i64
  %114 = getelementptr inbounds [100 x double], [100 x double]* %10, i64 0, i64 %113
  %115 = load double, double* %114, align 8
  %116 = fsub double %111, %115
  %117 = load i32, i32* %3, align 4
  %118 = sext i32 %117 to i64
  %119 = getelementptr inbounds [100 x [1000 x double]], [100 x [1000 x double]]* %6, i64 0, i64 %118
  %120 = load i32, i32* %4, align 4
  %121 = sext i32 %120 to i64
  %122 = getelementptr inbounds [1000 x double], [1000 x double]* %119, i64 0, i64 %121
  %123 = load double, double* %122, align 8
  %124 = load i32, i32* %3, align 4
  %125 = sext i32 %124 to i64
  %126 = getelementptr inbounds [100 x double], [100 x double]* %10, i64 0, i64 %125
  %127 = load double, double* %126, align 8
  %128 = fsub double %123, %127
  %129 = fmul double %116, %128
  %130 = load i32, i32* %3, align 4
  %131 = sext i32 %130 to i64
  %132 = getelementptr inbounds [100 x double], [100 x double]* %7, i64 0, i64 %131
  %133 = load double, double* %132, align 8
  %134 = fadd double %133, %129
  store double %134, double* %132, align 8
  br label %135

135:                                              ; preds = %104
  %136 = load i32, i32* %4, align 4
  %137 = add nsw i32 %136, 1
  store i32 %137, i32* %4, align 4
  br label %97

138:                                              ; preds = %97
  %139 = load i32, i32* %3, align 4
  %140 = sext i32 %139 to i64
  %141 = getelementptr inbounds [100 x double], [100 x double]* %7, i64 0, i64 %140
  %142 = load double, double* %141, align 8
  %143 = load i32, i32* %3, align 4
  %144 = sext i32 %143 to i64
  %145 = getelementptr inbounds [100 x i32], [100 x i32]* %5, i64 0, i64 %144
  %146 = load i32, i32* %145, align 4
  %147 = sitofp i32 %146 to double
  %148 = fdiv double %142, %147
  %149 = call double @sqrt(double %148) #4
  %150 = load i32, i32* %3, align 4
  %151 = sext i32 %150 to i64
  %152 = getelementptr inbounds [100 x double], [100 x double]* %8, i64 0, i64 %151
  store double %149, double* %152, align 8
  br label %153

153:                                              ; preds = %138
  %154 = load i32, i32* %3, align 4
  %155 = add nsw i32 %154, 1
  store i32 %155, i32* %3, align 4
  br label %92

156:                                              ; preds = %92
  store i32 0, i32* %3, align 4
  br label %157

157:                                              ; preds = %167, %156
  %158 = load i32, i32* %3, align 4
  %159 = load i32, i32* %2, align 4
  %160 = icmp slt i32 %158, %159
  br i1 %160, label %161, label %170

161:                                              ; preds = %157
  %162 = load i32, i32* %3, align 4
  %163 = sext i32 %162 to i64
  %164 = getelementptr inbounds [100 x double], [100 x double]* %8, i64 0, i64 %163
  %165 = load double, double* %164, align 8
  %166 = call i32 (i8*, ...) @printf(i8* getelementptr inbounds ([7 x i8], [7 x i8]* @.str.2, i64 0, i64 0), double %165)
  br label %167

167:                                              ; preds = %161
  %168 = load i32, i32* %3, align 4
  %169 = add nsw i32 %168, 1
  store i32 %169, i32* %3, align 4
  br label %157

170:                                              ; preds = %157
  ret i32 0
}

; Function Attrs: argmemonly nounwind willreturn
declare void @llvm.memset.p0i8.i64(i8* nocapture writeonly, i8, i64, i1 immarg) #1

declare dso_local i32 @__isoc99_scanf(i8*, ...) #2

; Function Attrs: nounwind
declare dso_local double @sqrt(double) #3

declare dso_local i32 @printf(i8*, ...) #2


!llvm.module.flags = !{!0}
!llvm.ident = !{!1}

!0 = !{i32 1, !"wchar_size", i32 4}
!1 = !{!"clang version 10.0.0-4ubuntu1 "}
